; Function Attrs: mustprogress uwtable
define noundef i32 @_ZN6icu_7516PluralRuleParser14getNumberValueERKNS_13UnicodeStringE(ptr noundef nonnull align 8 dereferenceable(64) %token) local_unnamed_addr #1 align 2 {
entry:
  %digits = alloca [128 x i8], align 16
  %fUnion.i.i = getelementptr inbounds i8, ptr %token, i64 8
  %0 = load i16, ptr %fUnion.i.i, align 8
  %cmp.i.i = icmp slt i16 %0, 0
  %1 = ashr i16 %0, 5
  %shr.i.i = sext i16 %1 to i32
  %fLength.i = getelementptr inbounds i8, ptr %token, i64 12
  %2 = load i32, ptr %fLength.i, align 4
  %cond.i = select i1 %cmp.i.i, i32 %2, i32 %shr.i.i
  %call1 = call noundef i32 @_ZNK6icu_7513UnicodeString7extractEiiPciNS0_10EInvariantE(ptr noundef nonnull align 8 dereferenceable(64) %token, i32 noundef 0, i32 noundef %cond.i, ptr noundef nonnull %digits, i32 noundef 128, i32 noundef 0)
  %idxprom = sext i32 %call1 to i64
  %arrayidx = getelementptr inbounds [128 x i8], ptr %digits, i64 0, i64 %idxprom
  store i8 0, ptr %arrayidx, align 1
  %call3 = call i32 @atoi(ptr nocapture noundef nonnull %digits) #28
  ret i32 %call3
}